target datalayout = "e-m:e-p270:32:32-p271:32:32-p272:64:64-i64:64-i128:128-f80:128-n8:16:32:64-S128"
target triple = "x86_64-pc-linux-gnu"

@.str.183 = private unnamed_addr constant [7 x i8] c"remote\00", align 1
@.str.223 = private unnamed_addr constant [4 x i8] c"url\00", align 1

; Function Attrs: inlinehint nounwind uwtable
define internal zeroext i1 @skip_prefix(ptr noundef %0, ptr noundef %1, ptr noundef %2) #6 {
  %4 = alloca i1, align 1
  %5 = alloca ptr, align 8
  %6 = alloca ptr, align 8
  %7 = alloca ptr, align 8
  store ptr %0, ptr %5, align 8, !tbaa !4
  store ptr %1, ptr %6, align 8, !tbaa !4
  store ptr %2, ptr %7, align 8, !tbaa !15
  br label %8

8:                                                ; preds = %16, %3
  %9 = load ptr, ptr %6, align 8, !tbaa !4
  %10 = load i8, ptr %9, align 1, !tbaa !9
  %11 = icmp ne i8 %10, 0
  br i1 %11, label %15, label %12

12:                                               ; preds = %8
  %13 = load ptr, ptr %5, align 8, !tbaa !4
  %14 = load ptr, ptr %7, align 8, !tbaa !15
  store ptr %13, ptr %14, align 8, !tbaa !4
  store i1 true, ptr %4, align 1
  br label %27

15:                                               ; preds = %8
  br label %16

16:                                               ; preds = %15
  %17 = load ptr, ptr %5, align 8, !tbaa !4
  %18 = getelementptr inbounds nuw i8, ptr %17, i32 1
  store ptr %18, ptr %5, align 8, !tbaa !4
  %19 = load i8, ptr %17, align 1, !tbaa !9
  %20 = sext i8 %19 to i32
  %21 = load ptr, ptr %6, align 8, !tbaa !4
  %22 = getelementptr inbounds nuw i8, ptr %21, i32 1
  store ptr %22, ptr %6, align 8, !tbaa !4
  %23 = load i8, ptr %21, align 1, !tbaa !9
  %24 = sext i8 %23 to i32
  %25 = icmp eq i32 %20, %24
  br i1 %25, label %8, label %26, !llvm.loop !194

26:                                               ; preds = %16
  store i1 false, ptr %4, align 1
  br label %27

27:                                               ; preds = %26, %12
  %28 = load i1, ptr %4, align 1
  ret i1 %28
}

; Function Attrs: nounwind uwtable
define dso_local i32 @parse_config_key(ptr noundef %0, ptr noundef %1, ptr noundef %2, ptr noundef %3, ptr noundef %4) #0 {
  %6 = alloca i32, align 4
  %7 = alloca ptr, align 8
  %8 = alloca ptr, align 8
  %9 = alloca ptr, align 8
  %10 = alloca ptr, align 8
  %11 = alloca ptr, align 8
  %12 = alloca ptr, align 8
  %13 = alloca i32, align 4
  store ptr %0, ptr %7, align 8, !tbaa !4
  store ptr %1, ptr %8, align 8, !tbaa !4
  store ptr %2, ptr %9, align 8, !tbaa !15
  store ptr %3, ptr %10, align 8, !tbaa !17
  store ptr %4, ptr %11, align 8, !tbaa !15
  call void @llvm.lifetime.start.p0(i64 8, ptr %12) #13
  %14 = load ptr, ptr %7, align 8, !tbaa !4
  %15 = load ptr, ptr %8, align 8, !tbaa !4
  %16 = call zeroext i1 @skip_prefix(ptr noundef %14, ptr noundef %15, ptr noundef %7)
  br i1 %16, label %17, label %22

17:                                               ; preds = %5
  %18 = load ptr, ptr %7, align 8, !tbaa !4
  %19 = load i8, ptr %18, align 1, !tbaa !9
  %20 = sext i8 %19 to i32
  %21 = icmp ne i32 %20, 46
  br i1 %21, label %22, label %23

22:                                               ; preds = %17, %5
  store i32 -1, ptr %6, align 4
  store i32 1, ptr %13, align 4
  br label %55

23:                                               ; preds = %17
  %24 = load ptr, ptr %7, align 8, !tbaa !4
  %25 = call ptr @strrchr(ptr noundef %24, i32 noundef 46) #14
  store ptr %25, ptr %12, align 8, !tbaa !4
  %26 = load ptr, ptr %12, align 8, !tbaa !4
  %27 = getelementptr inbounds i8, ptr %26, i64 1
  %28 = load ptr, ptr %11, align 8, !tbaa !15
  store ptr %27, ptr %28, align 8, !tbaa !4
  %29 = load ptr, ptr %12, align 8, !tbaa !4
  %30 = load ptr, ptr %7, align 8, !tbaa !4
  %31 = icmp eq ptr %29, %30
  br i1 %31, label %32, label %39

32:                                               ; preds = %23
  %33 = load ptr, ptr %9, align 8, !tbaa !15
  %34 = icmp ne ptr %33, null
  br i1 %34, label %35, label %38

35:                                               ; preds = %32
  %36 = load ptr, ptr %9, align 8, !tbaa !15
  store ptr null, ptr %36, align 8, !tbaa !4
  %37 = load ptr, ptr %10, align 8, !tbaa !17
  store i64 0, ptr %37, align 8, !tbaa !19
  br label %38

38:                                               ; preds = %35, %32
  br label %54

39:                                               ; preds = %23
  %40 = load ptr, ptr %9, align 8, !tbaa !15
  %41 = icmp ne ptr %40, null
  br i1 %41, label %43, label %42

42:                                               ; preds = %39
  store i32 -1, ptr %6, align 4
  store i32 1, ptr %13, align 4
  br label %55

43:                                               ; preds = %39
  %44 = load ptr, ptr %7, align 8, !tbaa !4
  %45 = getelementptr inbounds i8, ptr %44, i64 1
  %46 = load ptr, ptr %9, align 8, !tbaa !15
  store ptr %45, ptr %46, align 8, !tbaa !4
  %47 = load ptr, ptr %12, align 8, !tbaa !4
  %48 = load ptr, ptr %9, align 8, !tbaa !15
  %49 = load ptr, ptr %48, align 8, !tbaa !4
  %50 = ptrtoint ptr %47 to i64
  %51 = ptrtoint ptr %49 to i64
  %52 = sub i64 %50, %51
  %53 = load ptr, ptr %10, align 8, !tbaa !17
  store i64 %52, ptr %53, align 8, !tbaa !19
  br label %54

54:                                               ; preds = %43, %38
  store i32 0, ptr %6, align 4
  store i32 1, ptr %13, align 4
  br label %55

55:                                               ; preds = %54, %42, %22
  call void @llvm.lifetime.end.p0(i64 8, ptr %12) #13
  %56 = load i32, ptr %6, align 4
  ret i32 %56
}

; Function Attrs: nounwind uwtable
define internal i32 @add_remote_url(ptr noundef %0, ptr noundef %1, ptr noundef %2, ptr noundef %3) #0 {
  %5 = alloca ptr, align 8
  %6 = alloca ptr, align 8
  %7 = alloca ptr, align 8
  %8 = alloca ptr, align 8
  %9 = alloca ptr, align 8
  %10 = alloca ptr, align 8
  %11 = alloca i64, align 8
  %12 = alloca ptr, align 8
  store ptr %0, ptr %5, align 8, !tbaa !4
  store ptr %1, ptr %6, align 8, !tbaa !4
  store ptr %2, ptr %7, align 8, !tbaa !46
  store ptr %3, ptr %8, align 8, !tbaa !30
  call void @llvm.lifetime.start.p0(i64 8, ptr %9) #13
  %13 = load ptr, ptr %8, align 8, !tbaa !30
  store ptr %13, ptr %9, align 8, !tbaa !129
  call void @llvm.lifetime.start.p0(i64 8, ptr %10) #13
  call void @llvm.lifetime.start.p0(i64 8, ptr %11) #13
  call void @llvm.lifetime.start.p0(i64 8, ptr %12) #13
  %14 = load ptr, ptr %5, align 8, !tbaa !4
  %15 = call i32 @parse_config_key(ptr noundef %14, ptr noundef @.str.183, ptr noundef %10, ptr noundef %11, ptr noundef %12)
  %16 = icmp ne i32 %15, 0
  br i1 %16, label %28, label %17

17:                                               ; preds = %4
  %18 = load ptr, ptr %10, align 8, !tbaa !4
  %19 = icmp ne ptr %18, null
  br i1 %19, label %20, label %28

20:                                               ; preds = %17
  %21 = load ptr, ptr %12, align 8, !tbaa !4
  %22 = call i32 @strcmp(ptr noundef %21, ptr noundef @.str.223) #14
  %23 = icmp ne i32 %22, 0
  br i1 %23, label %28, label %24

24:                                               ; preds = %20
  %25 = load ptr, ptr %9, align 8, !tbaa !129
  %26 = load ptr, ptr %6, align 8, !tbaa !4
  %27 = call ptr @string_list_append(ptr noundef %25, ptr noundef %26)
  br label %28

28:                                               ; preds = %24, %20, %17, %4
  call void @llvm.lifetime.end.p0(i64 8, ptr %12) #13
  call void @llvm.lifetime.end.p0(i64 8, ptr %11) #13
  call void @llvm.lifetime.end.p0(i64 8, ptr %10) #13
  call void @llvm.lifetime.end.p0(i64 8, ptr %9) #13
  ret i32 0
}