; Function Attrs: nounwind uwtable
define internal noundef i32 @add_remote_url(ptr noundef readonly %0, ptr noundef %1, ptr readnone captures(none) %2, ptr noundef %3) #0 {
  %scevgep = getelementptr i8, ptr %0, i64 6
  br label %5

5:                                                ; preds = %6, %4
  %.07.i.i = phi ptr [ %0, %4 ], [ %8, %6 ]
  %.06.i.i.idx = phi i64 [ 0, %4 ], [ %.06.i.i.add, %6 ]
  %exitcond = icmp eq i64 %.06.i.i.idx, 6
  br i1 %exitcond, label %11, label %6

6:                                                ; preds = %5
  %.06.i.i.ptr = getelementptr inbounds nuw i8, ptr @.str.183, i64 %.06.i.i.idx
  %7 = load i8, ptr %.06.i.i.ptr, align 1, !tbaa !4
  %8 = getelementptr inbounds nuw i8, ptr %.07.i.i, i64 1
  %9 = load i8, ptr %.07.i.i, align 1, !tbaa !4
  %.06.i.i.add = add nuw nsw i64 %.06.i.i.idx, 1
  %10 = icmp eq i8 %9, %7
  br i1 %10, label %5, label %parse_config_key.exit.thread, !llvm.loop !93

11:                                               ; preds = %5
  %12 = load i8, ptr %scevgep, align 1, !tbaa !4
  %.not.i = icmp eq i8 %12, 46
  br i1 %.not.i, label %13, label %parse_config_key.exit.thread

13:                                               ; preds = %11
  %14 = tail call ptr @strrchr(ptr noundef nonnull dereferenceable(1) %scevgep, i32 noundef 46) #29
  %.not14 = icmp eq ptr %14, %scevgep
  br i1 %.not14, label %parse_config_key.exit.thread, label %15

15:                                               ; preds = %13
  %16 = getelementptr inbounds nuw i8, ptr %14, i64 1
  %17 = tail call i32 @strcmp(ptr noundef nonnull dereferenceable(1) %16, ptr noundef nonnull dereferenceable(4) @.str.223) #29
  %.not = icmp eq i32 %17, 0
  br i1 %.not, label %18, label %parse_config_key.exit.thread

18:                                               ; preds = %15
  %19 = tail call ptr @string_list_append(ptr noundef %3, ptr noundef %1) #30
  br label %parse_config_key.exit.thread

parse_config_key.exit.thread:                     ; preds = %6, %13, %11, %18, %15
  ret i32 0
}